target datalayout = "e-m:e-p270:32:32-p271:32:32-p272:64:64-i64:64-i128:128-f80:128-n8:16:32:64-S128"
target triple = "x86_64-pc-linux-gnu"

%struct._packet_info = type { ptr, ptr, i32, i32, %struct.nstime_t, %struct.nstime_t, %struct.nstime_t, i8, ptr, ptr, ptr, ptr, %struct._address, %struct._address, %struct._address, %struct._address, %struct._address, %struct._address, i32, ptr, i8, [3 x i8], %struct.anon, i32, i32, i32, i32, ptr, i8, ptr, ptr, i16, i16, i32, i32, i16, i32, i32, ptr, ptr, ptr, i8, i8, i16, i16, i16, i32, i16, i16, ptr, ptr, ptr, ptr, ptr, i32, i32 }
%struct.nstime_t = type { i64, i32 }
%struct._address = type { i32, i32, ptr, ptr }
%struct.anon = type { i8, [3 x i8] }
%struct._proto_node = type { ptr, ptr, ptr, ptr, ptr, ptr, ptr }
%struct.field_info = type { ptr, i32, i32, i32, i32, i32, i32, ptr, ptr, ptr, i32, i32 }

@hf_dlep_dataitem_v6conn = internal global i32 0, align 4
@hf_dlep_dataitem_v6conn_flags = internal global i32 0, align 4
@hf_dlep_dataitem_v6conn_flags_tls = internal global i32 0, align 4
@hf_dlep_dataitem_v6conn_addr = internal global i32 0, align 4
@hf_dlep_dataitem_v6conn_port = internal global i32 0, align 4
@ett_dlep_flags = internal global i32 0, align 4
@.str.207 = private unnamed_addr constant [11 x i8] c", Addr: %s\00", align 1
@.str.208 = private unnamed_addr constant [11 x i8] c", Port: %u\00", align 1

; Function Attrs: inlinehint nounwind null_pointer_is_valid sspstrong uwtable
define internal void @proto_item_set_hidden(ptr noundef %0) #3 {
  %2 = alloca ptr, align 8
  store ptr %0, ptr %2, align 8
  %3 = load ptr, ptr %2, align 8
  %4 = icmp ne ptr %3, null
  br i1 %4, label %5, label %24

5:                                                ; preds = %1
  br label %6

6:                                                ; preds = %5
  %7 = load ptr, ptr %2, align 8
  %8 = getelementptr inbounds nuw %struct._proto_node, ptr %7, i32 0, i32 5
  %9 = load ptr, ptr %8, align 8
  %10 = icmp ne ptr %9, null
  br i1 %10, label %11, label %22

11:                                               ; preds = %6
  %12 = load ptr, ptr %2, align 8
  %13 = getelementptr inbounds nuw %struct._proto_node, ptr %12, i32 0, i32 5
  %14 = load ptr, ptr %13, align 8
  %15 = getelementptr inbounds nuw %struct.field_info, ptr %14, i32 0, i32 6
  %16 = load i32, ptr %15, align 4
  %17 = or i32 %16, 1
  %18 = load ptr, ptr %2, align 8
  %19 = getelementptr inbounds nuw %struct._proto_node, ptr %18, i32 0, i32 5
  %20 = load ptr, ptr %19, align 8
  %21 = getelementptr inbounds nuw %struct.field_info, ptr %20, i32 0, i32 6
  store i32 %17, ptr %21, align 4
  br label %22

22:                                               ; preds = %11, %6
  br label %23

23:                                               ; preds = %22
  br label %24

24:                                               ; preds = %23, %1
  ret void
}

; Function Attrs: null_pointer_is_valid sspstrong uwtable
define internal i32 @decode_dataitem_v6conn(ptr noundef %0, ptr noundef %1, ptr noundef %2, ptr noundef %3) #0 {
  %5 = alloca ptr, align 8
  %6 = alloca ptr, align 8
  %7 = alloca ptr, align 8
  %8 = alloca ptr, align 8
  %9 = alloca ptr, align 8
  %10 = alloca i32, align 4
  %11 = alloca i32, align 4
  %12 = alloca ptr, align 8
  %13 = alloca ptr, align 8
  %14 = alloca i32, align 4
  store ptr %0, ptr %5, align 8
  store ptr %1, ptr %6, align 8
  store ptr %2, ptr %7, align 8
  store ptr %3, ptr %8, align 8
  call void @llvm.lifetime.start.p0(i64 8, ptr %9) #6
  %15 = load ptr, ptr %7, align 8
  %16 = call ptr @proto_tree_get_parent(ptr noundef %15)
  store ptr %16, ptr %9, align 8
  call void @llvm.lifetime.start.p0(i64 4, ptr %10) #6
  %17 = load ptr, ptr %5, align 8
  %18 = call i32 @tvb_captured_length(ptr noundef %17)
  store i32 %18, ptr %10, align 4
  call void @llvm.lifetime.start.p0(i64 4, ptr %11) #6
  store i32 0, ptr %11, align 4
  call void @llvm.lifetime.start.p0(i64 8, ptr %12) #6
  store ptr null, ptr %12, align 8
  call void @llvm.lifetime.start.p0(i64 8, ptr %13) #6
  store ptr null, ptr %13, align 8
  call void @llvm.lifetime.start.p0(i64 4, ptr %14) #6
  %19 = load ptr, ptr %7, align 8
  %20 = load i32, ptr @hf_dlep_dataitem_v6conn, align 4
  %21 = load ptr, ptr %5, align 8
  %22 = load i32, ptr %11, align 4
  %23 = load i32, ptr %10, align 4
  %24 = call ptr @proto_tree_add_item(ptr noundef %19, i32 noundef %20, ptr noundef %21, i32 noundef %22, i32 noundef %23, i32 noundef 0)
  store ptr %24, ptr %12, align 8
  %25 = load ptr, ptr %12, align 8
  call void @proto_item_set_hidden(ptr noundef %25)
  %26 = load ptr, ptr %7, align 8
  %27 = load i32, ptr @hf_dlep_dataitem_v6conn_flags, align 4
  %28 = load ptr, ptr %5, align 8
  %29 = load i32, ptr %11, align 4
  %30 = call ptr @proto_tree_add_item(ptr noundef %26, i32 noundef %27, ptr noundef %28, i32 noundef %29, i32 noundef 1, i32 noundef 0)
  store ptr %30, ptr %12, align 8
  %31 = load ptr, ptr %12, align 8
  %32 = load i32, ptr @ett_dlep_flags, align 4
  %33 = call ptr @proto_item_add_subtree(ptr noundef %31, i32 noundef %32)
  store ptr %33, ptr %13, align 8
  %34 = load ptr, ptr %13, align 8
  %35 = load i32, ptr @hf_dlep_dataitem_v6conn_flags_tls, align 4
  %36 = load ptr, ptr %5, align 8
  %37 = load i32, ptr %11, align 4
  %38 = call ptr @proto_tree_add_item(ptr noundef %34, i32 noundef %35, ptr noundef %36, i32 noundef %37, i32 noundef 1, i32 noundef 0)
  %39 = load i32, ptr %11, align 4
  %40 = add i32 %39, 1
  store i32 %40, ptr %11, align 4
  %41 = load ptr, ptr %7, align 8
  %42 = load i32, ptr @hf_dlep_dataitem_v6conn_addr, align 4
  %43 = load ptr, ptr %5, align 8
  %44 = load i32, ptr %11, align 4
  %45 = call ptr @proto_tree_add_item(ptr noundef %41, i32 noundef %42, ptr noundef %43, i32 noundef %44, i32 noundef 16, i32 noundef 0)
  %46 = load ptr, ptr %9, align 8
  %47 = load ptr, ptr %6, align 8
  %48 = getelementptr inbounds nuw %struct._packet_info, ptr %47, i32 0, i32 51
  %49 = load ptr, ptr %48, align 8
  %50 = load ptr, ptr %5, align 8
  %51 = load i32, ptr %11, align 4
  %52 = call ptr @tvb_address_to_str(ptr noundef %49, ptr noundef %50, i32 noundef 3, i32 noundef %51)
  call void (ptr, ptr, ...) @proto_item_append_text(ptr noundef %46, ptr noundef @.str.207, ptr noundef %52)
  %53 = load i32, ptr %11, align 4
  %54 = add i32 %53, 16
  store i32 %54, ptr %11, align 4
  %55 = load i32, ptr %10, align 4
  %56 = icmp eq i32 %55, 19
  br i1 %56, label %57, label %67

57:                                               ; preds = %4
  %58 = load ptr, ptr %7, align 8
  %59 = load i32, ptr @hf_dlep_dataitem_v6conn_port, align 4
  %60 = load ptr, ptr %5, align 8
  %61 = load i32, ptr %11, align 4
  %62 = call ptr @proto_tree_add_item_ret_uint(ptr noundef %58, i32 noundef %59, ptr noundef %60, i32 noundef %61, i32 noundef 2, i32 noundef 0, ptr noundef %14)
  %63 = load ptr, ptr %9, align 8
  %64 = load i32, ptr %14, align 4
  call void (ptr, ptr, ...) @proto_item_append_text(ptr noundef %63, ptr noundef @.str.208, i32 noundef %64)
  %65 = load i32, ptr %11, align 4
  %66 = add i32 %65, 2
  store i32 %66, ptr %11, align 4
  br label %67

67:                                               ; preds = %57, %4
  %68 = load i32, ptr %11, align 4
  call void @llvm.lifetime.end.p0(i64 4, ptr %14) #6
  call void @llvm.lifetime.end.p0(i64 8, ptr %13) #6
  call void @llvm.lifetime.end.p0(i64 8, ptr %12) #6
  call void @llvm.lifetime.end.p0(i64 4, ptr %11) #6
  call void @llvm.lifetime.end.p0(i64 4, ptr %10) #6
  call void @llvm.lifetime.end.p0(i64 8, ptr %9) #6
  ret i32 %68
}